target datalayout = "e-m:e-p270:32:32-p271:32:32-p272:64:64-i64:64-i128:128-f80:128-n8:16:32:64-S128"
target triple = "x86_64-pc-linux-gnu"

%struct._zend_refcounted_h = type { i32, %union.anon }
%union.anon = type { i32 }
%struct._zend_string = type { %struct._zend_refcounted_h, i64, i64, [1 x i8] }
%struct._zend_op_array = type { i8, [3 x i8], i32, ptr, ptr, ptr, i32, i32, ptr, ptr, ptr, ptr, i32, i32, i32, i32, ptr, ptr, ptr, ptr, ptr, i32, i32, ptr, ptr, ptr, i32, i32, i32, i32, ptr, ptr, [6 x ptr] }
%struct._zend_ssa = type { %struct._zend_cfg, i32, i32, ptr, ptr, ptr, ptr }
%struct._zend_cfg = type { i32, i32, ptr, ptr, ptr, i32 }
%struct._zend_ssa_var = type { i32, i32, i32, i32, ptr, ptr, ptr, i8 }
%struct._zend_ssa_var_info = type { i32, i8, %struct._zend_ssa_range, ptr }
%struct._zend_ssa_range = type { i64, i64, i8, i8 }

@stderr = external global ptr, align 8
@.str.13 = private unnamed_addr constant [10 x i8] c"CV%d($%s)\00", align 1
@.str.14 = private unnamed_addr constant [4 x i8] c"V%d\00", align 1
@.str.15 = private unnamed_addr constant [4 x i8] c"T%d\00", align 1
@.str.16 = private unnamed_addr constant [4 x i8] c"X%d\00", align 1
@.str.17 = private unnamed_addr constant [5 x i8] c"#%d.\00", align 1
@.str.18 = private unnamed_addr constant [4 x i8] c"#?.\00", align 1
@.str.19 = private unnamed_addr constant [7 x i8] c" NOVAL\00", align 1
@.str.20 = private unnamed_addr constant [7 x i8] c" NOESC\00", align 1

; Function Attrs: nounwind uwtable
define internal void @zend_dump_ssa_var_info(ptr noundef %0, i32 noundef %1, i32 noundef %2) #0 {
  %4 = alloca ptr, align 8
  %5 = alloca i32, align 4
  %6 = alloca i32, align 4
  store ptr %0, ptr %4, align 8
  store i32 %1, ptr %5, align 4
  store i32 %2, ptr %6, align 4
  %7 = load ptr, ptr %4, align 8
  %8 = getelementptr inbounds %struct._zend_ssa, ptr %7, i32 0, i32 6
  %9 = load ptr, ptr %8, align 8
  %10 = load i32, ptr %5, align 4
  %11 = sext i32 %10 to i64
  %12 = getelementptr inbounds %struct._zend_ssa_var_info, ptr %9, i64 %11
  %13 = getelementptr inbounds %struct._zend_ssa_var_info, ptr %12, i32 0, i32 0
  %14 = load i32, ptr %13, align 8
  %15 = load ptr, ptr %4, align 8
  %16 = getelementptr inbounds %struct._zend_ssa, ptr %15, i32 0, i32 6
  %17 = load ptr, ptr %16, align 8
  %18 = load i32, ptr %5, align 4
  %19 = sext i32 %18 to i64
  %20 = getelementptr inbounds %struct._zend_ssa_var_info, ptr %17, i64 %19
  %21 = getelementptr inbounds %struct._zend_ssa_var_info, ptr %20, i32 0, i32 3
  %22 = load ptr, ptr %21, align 8
  %23 = load ptr, ptr %4, align 8
  %24 = getelementptr inbounds %struct._zend_ssa, ptr %23, i32 0, i32 6
  %25 = load ptr, ptr %24, align 8
  %26 = load i32, ptr %5, align 4
  %27 = sext i32 %26 to i64
  %28 = getelementptr inbounds %struct._zend_ssa_var_info, ptr %25, i64 %27
  %29 = getelementptr inbounds %struct._zend_ssa_var_info, ptr %28, i32 0, i32 3
  %30 = load ptr, ptr %29, align 8
  %31 = icmp ne ptr %30, null
  br i1 %31, label %32, label %45

32:                                               ; preds = %3
  %33 = load ptr, ptr %4, align 8
  %34 = getelementptr inbounds %struct._zend_ssa, ptr %33, i32 0, i32 6
  %35 = load ptr, ptr %34, align 8
  %36 = load i32, ptr %5, align 4
  %37 = sext i32 %36 to i64
  %38 = getelementptr inbounds %struct._zend_ssa_var_info, ptr %35, i64 %37
  %39 = getelementptr inbounds %struct._zend_ssa_var_info, ptr %38, i32 0, i32 1
  %40 = load i8, ptr %39, align 4
  %41 = lshr i8 %40, 1
  %42 = and i8 %41, 1
  %43 = trunc i8 %42 to i1
  %44 = zext i1 %43 to i32
  br label %46

45:                                               ; preds = %3
  br label %46

46:                                               ; preds = %45, %32
  %47 = phi i32 [ %44, %32 ], [ 0, %45 ]
  %48 = load i32, ptr %6, align 4
  call void @zend_dump_type_info(i32 noundef %14, ptr noundef %22, i32 noundef %47, i32 noundef %48)
  ret void
}

; Function Attrs: nounwind uwtable
define void @zend_dump_var(ptr noundef %0, i8 noundef zeroext %1, i32 noundef %2) #0 {
  %4 = alloca ptr, align 8
  %5 = alloca i8, align 1
  %6 = alloca i32, align 4
  store ptr %0, ptr %4, align 8
  store i8 %1, ptr %5, align 1
  store i32 %2, ptr %6, align 4
  %7 = load i8, ptr %5, align 1
  %8 = zext i8 %7 to i32
  %9 = icmp eq i32 %8, 8
  br i1 %9, label %10, label %29

10:                                               ; preds = %3
  %11 = load i32, ptr %6, align 4
  %12 = load ptr, ptr %4, align 8
  %13 = getelementptr inbounds %struct._zend_op_array, ptr %12, i32 0, i32 14
  %14 = load i32, ptr %13, align 8
  %15 = icmp slt i32 %11, %14
  br i1 %15, label %16, label %29

16:                                               ; preds = %10
  %17 = load ptr, ptr @stderr, align 8
  %18 = load i32, ptr %6, align 4
  %19 = load ptr, ptr %4, align 8
  %20 = getelementptr inbounds %struct._zend_op_array, ptr %19, i32 0, i32 19
  %21 = load ptr, ptr %20, align 8
  %22 = load i32, ptr %6, align 4
  %23 = sext i32 %22 to i64
  %24 = getelementptr inbounds ptr, ptr %21, i64 %23
  %25 = load ptr, ptr %24, align 8
  %26 = getelementptr inbounds %struct._zend_string, ptr %25, i32 0, i32 3
  %27 = getelementptr inbounds [1 x i8], ptr %26, i64 0, i64 0
  %28 = call i32 (ptr, ptr, ...) @fprintf(ptr noundef %17, ptr noundef @.str.13, i32 noundef %18, ptr noundef %27) #4
  br label %52

29:                                               ; preds = %10, %3
  %30 = load i8, ptr %5, align 1
  %31 = zext i8 %30 to i32
  %32 = icmp eq i32 %31, 4
  br i1 %32, label %33, label %37

33:                                               ; preds = %29
  %34 = load ptr, ptr @stderr, align 8
  %35 = load i32, ptr %6, align 4
  %36 = call i32 (ptr, ptr, ...) @fprintf(ptr noundef %34, ptr noundef @.str.14, i32 noundef %35) #4
  br label %51

37:                                               ; preds = %29
  %38 = load i8, ptr %5, align 1
  %39 = zext i8 %38 to i32
  %40 = and i32 %39, 6
  %41 = icmp eq i32 %40, 2
  br i1 %41, label %42, label %46

42:                                               ; preds = %37
  %43 = load ptr, ptr @stderr, align 8
  %44 = load i32, ptr %6, align 4
  %45 = call i32 (ptr, ptr, ...) @fprintf(ptr noundef %43, ptr noundef @.str.15, i32 noundef %44) #4
  br label %50

46:                                               ; preds = %37
  %47 = load ptr, ptr @stderr, align 8
  %48 = load i32, ptr %6, align 4
  %49 = call i32 (ptr, ptr, ...) @fprintf(ptr noundef %47, ptr noundef @.str.16, i32 noundef %48) #4
  br label %50

50:                                               ; preds = %46, %42
  br label %51

51:                                               ; preds = %50, %33
  br label %52

52:                                               ; preds = %51, %16
  ret void
}

; Function Attrs: nounwind uwtable
define void @zend_dump_ssa_var(ptr noundef %0, ptr noundef %1, i32 noundef %2, i8 noundef zeroext %3, i32 noundef %4, i32 noundef %5) #0 {
  %7 = alloca ptr, align 8
  %8 = alloca ptr, align 8
  %9 = alloca i32, align 4
  %10 = alloca i8, align 1
  %11 = alloca i32, align 4
  %12 = alloca i32, align 4
  store ptr %0, ptr %7, align 8
  store ptr %1, ptr %8, align 8
  store i32 %2, ptr %9, align 4
  store i8 %3, ptr %10, align 1
  store i32 %4, ptr %11, align 4
  store i32 %5, ptr %12, align 4
  %13 = load i32, ptr %9, align 4
  %14 = icmp sge i32 %13, 0
  br i1 %14, label %15, label %19

15:                                               ; preds = %6
  %16 = load ptr, ptr @stderr, align 8
  %17 = load i32, ptr %9, align 4
  %18 = call i32 (ptr, ptr, ...) @fprintf(ptr noundef %16, ptr noundef @.str.17, i32 noundef %17) #4
  br label %22

19:                                               ; preds = %6
  %20 = load ptr, ptr @stderr, align 8
  %21 = call i32 (ptr, ptr, ...) @fprintf(ptr noundef %20, ptr noundef @.str.18) #4
  br label %22

22:                                               ; preds = %19, %15
  %23 = load ptr, ptr %7, align 8
  %24 = load i32, ptr %11, align 4
  %25 = load ptr, ptr %7, align 8
  %26 = getelementptr inbounds %struct._zend_op_array, ptr %25, i32 0, i32 14
  %27 = load i32, ptr %26, align 8
  %28 = icmp slt i32 %24, %27
  br i1 %28, label %29, label %30

29:                                               ; preds = %22
  br label %33

30:                                               ; preds = %22
  %31 = load i8, ptr %10, align 1
  %32 = zext i8 %31 to i32
  br label %33

33:                                               ; preds = %30, %29
  %34 = phi i32 [ 8, %29 ], [ %32, %30 ]
  %35 = trunc i32 %34 to i8
  %36 = load i32, ptr %11, align 4
  call void @zend_dump_var(ptr noundef %23, i8 noundef zeroext %35, i32 noundef %36)
  %37 = load i32, ptr %9, align 4
  %38 = icmp sge i32 %37, 0
  br i1 %38, label %39, label %103

39:                                               ; preds = %33
  %40 = load ptr, ptr %8, align 8
  %41 = getelementptr inbounds %struct._zend_ssa, ptr %40, i32 0, i32 5
  %42 = load ptr, ptr %41, align 8
  %43 = icmp ne ptr %42, null
  br i1 %43, label %44, label %103

44:                                               ; preds = %39
  %45 = load ptr, ptr %8, align 8
  %46 = getelementptr inbounds %struct._zend_ssa, ptr %45, i32 0, i32 5
  %47 = load ptr, ptr %46, align 8
  %48 = load i32, ptr %9, align 4
  %49 = sext i32 %48 to i64
  %50 = getelementptr inbounds %struct._zend_ssa_var, ptr %47, i64 %49
  %51 = getelementptr inbounds %struct._zend_ssa_var, ptr %50, i32 0, i32 7
  %52 = load i8, ptr %51, align 8
  %53 = and i8 %52, 1
  %54 = trunc i8 %53 to i1
  br i1 %54, label %55, label %58

55:                                               ; preds = %44
  %56 = load ptr, ptr @stderr, align 8
  %57 = call i32 (ptr, ptr, ...) @fprintf(ptr noundef %56, ptr noundef @.str.19) #4
  br label %58

58:                                               ; preds = %55, %44
  %59 = load ptr, ptr %8, align 8
  %60 = getelementptr inbounds %struct._zend_ssa, ptr %59, i32 0, i32 5
  %61 = load ptr, ptr %60, align 8
  %62 = load i32, ptr %9, align 4
  %63 = sext i32 %62 to i64
  %64 = getelementptr inbounds %struct._zend_ssa_var, ptr %61, i64 %63
  %65 = getelementptr inbounds %struct._zend_ssa_var, ptr %64, i32 0, i32 7
  %66 = load i8, ptr %65, align 8
  %67 = lshr i8 %66, 4
  %68 = and i8 %67, 3
  %69 = zext i8 %68 to i32
  %70 = icmp eq i32 %69, 1
  br i1 %70, label %71, label %74

71:                                               ; preds = %58
  %72 = load ptr, ptr @stderr, align 8
  %73 = call i32 (ptr, ptr, ...) @fprintf(ptr noundef %72, ptr noundef @.str.20) #4
  br label %74

74:                                               ; preds = %71, %58
  %75 = load ptr, ptr %8, align 8
  %76 = getelementptr inbounds %struct._zend_ssa, ptr %75, i32 0, i32 6
  %77 = load ptr, ptr %76, align 8
  %78 = icmp ne ptr %77, null
  br i1 %78, label %79, label %102

79:                                               ; preds = %74
  %80 = load ptr, ptr %8, align 8
  %81 = load i32, ptr %9, align 4
  %82 = load i32, ptr %12, align 4
  call void @zend_dump_ssa_var_info(ptr noundef %80, i32 noundef %81, i32 noundef %82)
  %83 = load ptr, ptr %8, align 8
  %84 = getelementptr inbounds %struct._zend_ssa, ptr %83, i32 0, i32 6
  %85 = load ptr, ptr %84, align 8
  %86 = load i32, ptr %9, align 4
  %87 = sext i32 %86 to i64
  %88 = getelementptr inbounds %struct._zend_ssa_var_info, ptr %85, i64 %87
  %89 = getelementptr inbounds %struct._zend_ssa_var_info, ptr %88, i32 0, i32 1
  %90 = load i8, ptr %89, align 4
  %91 = and i8 %90, 1
  %92 = trunc i8 %91 to i1
  br i1 %92, label %93, label %101

93:                                               ; preds = %79
  %94 = load ptr, ptr %8, align 8
  %95 = getelementptr inbounds %struct._zend_ssa, ptr %94, i32 0, i32 6
  %96 = load ptr, ptr %95, align 8
  %97 = load i32, ptr %9, align 4
  %98 = sext i32 %97 to i64
  %99 = getelementptr inbounds %struct._zend_ssa_var_info, ptr %96, i64 %98
  %100 = getelementptr inbounds %struct._zend_ssa_var_info, ptr %99, i32 0, i32 2
  call void @zend_dump_range(ptr noundef %100)
  br label %101

101:                                              ; preds = %93, %79
  br label %102

102:                                              ; preds = %101, %74
  br label %103

103:                                              ; preds = %102, %39, %33
  ret void
}