; Function Attrs: nofree nounwind uwtable
define void @zend_dump_ssa_var(ptr nocapture noundef readonly %0, ptr nocapture noundef readonly %1, i32 noundef %2, i8 noundef zeroext %3, i32 noundef %4, i32 noundef %5) local_unnamed_addr #3 {
  %7 = icmp sgt i32 %2, -1
  %8 = load ptr, ptr @stderr, align 8
  br i1 %7, label %9, label %11

9:                                                ; preds = %6
  %10 = tail call i32 (ptr, ptr, ...) @fprintf(ptr noundef %8, ptr noundef nonnull @.str.17, i32 noundef %2) #8
  br label %13

11:                                               ; preds = %6
  %12 = tail call i64 @fwrite(ptr nonnull @.str.18, i64 3, i64 1, ptr %8) #7
  br label %13

13:                                               ; preds = %11, %9
  %14 = getelementptr inbounds i8, ptr %0, i64 80
  %15 = load i32, ptr %14, align 8
  %16 = icmp sgt i32 %15, %4
  %17 = select i1 %16, i8 8, i8 %3
  switch i8 %17, label %31 [
    i8 8, label %18
    i8 4, label %28
  ]

18:                                               ; preds = %13
  br i1 %16, label %19, label %.thread.i

19:                                               ; preds = %18
  %20 = load ptr, ptr @stderr, align 8
  %21 = getelementptr inbounds i8, ptr %0, i64 112
  %22 = load ptr, ptr %21, align 8
  %23 = sext i32 %4 to i64
  %24 = getelementptr inbounds ptr, ptr %22, i64 %23
  %25 = load ptr, ptr %24, align 8
  %26 = getelementptr inbounds i8, ptr %25, i64 24
  %27 = tail call i32 (ptr, ptr, ...) @fprintf(ptr noundef %20, ptr noundef nonnull @.str.13, i32 noundef %4, ptr noundef nonnull %26) #8
  br label %zend_dump_var.exit

28:                                               ; preds = %13
  %29 = load ptr, ptr @stderr, align 8
  %30 = tail call i32 (ptr, ptr, ...) @fprintf(ptr noundef %29, ptr noundef nonnull @.str.14, i32 noundef %4) #8
  br label %zend_dump_var.exit

31:                                               ; preds = %13
  %32 = and i8 %17, 6
  %33 = icmp eq i8 %32, 2
  br i1 %33, label %34, label %.thread.i

34:                                               ; preds = %31
  %35 = load ptr, ptr @stderr, align 8
  %36 = tail call i32 (ptr, ptr, ...) @fprintf(ptr noundef %35, ptr noundef nonnull @.str.15, i32 noundef %4) #8
  br label %zend_dump_var.exit

.thread.i:                                        ; preds = %31, %18
  %37 = load ptr, ptr @stderr, align 8
  %38 = tail call i32 (ptr, ptr, ...) @fprintf(ptr noundef %37, ptr noundef nonnull @.str.16, i32 noundef %4) #8
  br label %zend_dump_var.exit

zend_dump_var.exit:                               ; preds = %19, %28, %34, %.thread.i
  br i1 %7, label %39, label %76

39:                                               ; preds = %zend_dump_var.exit
  %40 = getelementptr inbounds i8, ptr %1, i64 64
  %41 = load ptr, ptr %40, align 8
  %.not = icmp eq ptr %41, null
  br i1 %.not, label %76, label %42

42:                                               ; preds = %39
  %43 = zext nneg i32 %2 to i64
  %44 = getelementptr inbounds %struct._zend_ssa_var, ptr %41, i64 %43, i32 7
  %45 = load i8, ptr %44, align 8
  %46 = and i8 %45, 1
  %.not21 = icmp eq i8 %46, 0
  br i1 %.not21, label %50, label %47

47:                                               ; preds = %42
  %48 = load ptr, ptr @stderr, align 8
  %49 = tail call i64 @fwrite(ptr nonnull @.str.19, i64 6, i64 1, ptr %48) #7
  %.pre = load ptr, ptr %40, align 8
  %.phi.trans.insert = getelementptr inbounds %struct._zend_ssa_var, ptr %.pre, i64 %43, i32 7
  %.pre24 = load i8, ptr %.phi.trans.insert, align 8
  br label %50

50:                                               ; preds = %47, %42
  %51 = phi i8 [ %.pre24, %47 ], [ %45, %42 ]
  %52 = and i8 %51, 48
  %53 = icmp eq i8 %52, 16
  br i1 %53, label %54, label %57

54:                                               ; preds = %50
  %55 = load ptr, ptr @stderr, align 8
  %56 = tail call i64 @fwrite(ptr nonnull @.str.20, i64 6, i64 1, ptr %55) #7
  br label %57

57:                                               ; preds = %54, %50
  %58 = getelementptr inbounds i8, ptr %1, i64 72
  %59 = load ptr, ptr %58, align 8
  %.not22 = icmp eq ptr %59, null
  br i1 %.not22, label %76, label %60

60:                                               ; preds = %57
  %61 = getelementptr inbounds %struct._zend_ssa_var_info, ptr %59, i64 %43
  %62 = load i32, ptr %61, align 8
  %63 = getelementptr inbounds i8, ptr %61, i64 32
  %64 = load ptr, ptr %63, align 8
  %.not.i = icmp eq ptr %64, null
  br i1 %.not.i, label %.split8.i, label %.split.i

.split8.i:                                        ; preds = %60
  tail call fastcc void @zend_dump_type_info(i32 noundef %62, ptr noundef null, i32 noundef 0, i32 noundef %5)
  br label %zend_dump_ssa_var_info.exit

.split.i:                                         ; preds = %60
  %65 = getelementptr inbounds i8, ptr %61, i64 4
  %66 = load i8, ptr %65, align 4
  %67 = lshr i8 %66, 1
  %.lobit.i = and i8 %67, 1
  %68 = zext nneg i8 %.lobit.i to i32
  tail call fastcc void @zend_dump_type_info(i32 noundef %62, ptr noundef nonnull %64, i32 noundef %68, i32 noundef %5)
  br label %zend_dump_ssa_var_info.exit

zend_dump_ssa_var_info.exit:                      ; preds = %.split8.i, %.split.i
  %69 = load ptr, ptr %58, align 8
  %70 = getelementptr inbounds %struct._zend_ssa_var_info, ptr %69, i64 %43
  %71 = getelementptr inbounds i8, ptr %70, i64 4
  %72 = load i8, ptr %71, align 4
  %73 = and i8 %72, 1
  %.not23 = icmp eq i8 %73, 0
  br i1 %.not23, label %76, label %74

74:                                               ; preds = %zend_dump_ssa_var_info.exit
  %75 = getelementptr inbounds i8, ptr %70, i64 8
  tail call fastcc void @zend_dump_range(ptr noundef nonnull %75)
  br label %76

76:                                               ; preds = %57, %74, %zend_dump_ssa_var_info.exit, %39, %zend_dump_var.exit
  ret void
}